; Function Attrs: mustprogress nounwind uwtable
define internal void @"_ZN4absl12lts_2023080222internal_any_invocable23RemoteManagerNontrivialIZN9grpc_core17NativeDNSResolver9LookupSRVESt8functionIFvNS0_8StatusOrISt6vectorI21grpc_resolved_addressSaIS8_EEEEEESt17basic_string_viewIcSt11char_traitsIcEENS3_8DurationEP16grpc_pollset_setSH_E3$_0EEvNS1_14FunctionToCallEPNS1_15TypeErasedStateESO_"(i1 noundef zeroext %operation, ptr nocapture noundef readonly %from, ptr nocapture noundef writeonly %to) #9 personality ptr @__gxx_personality_v0 {
entry:
  %0 = load ptr, ptr %from, align 16
  br i1 %operation, label %sw.bb2, label %sw.bb

sw.bb:                                            ; preds = %entry
  store ptr %0, ptr %to, align 16
  br label %do.end

sw.bb2:                                           ; preds = %entry
  %isnull = icmp eq ptr %0, null
  br i1 %isnull, label %do.end, label %delete.notnull

delete.notnull:                                   ; preds = %sw.bb2
  %_M_manager.i.i.i = getelementptr inbounds i8, ptr %0, i64 16
  %1 = load ptr, ptr %_M_manager.i.i.i, align 8
  %tobool.not.i.i.i = icmp eq ptr %1, null
  br i1 %tobool.not.i.i.i, label %"_ZZN9grpc_core17NativeDNSResolver9LookupSRVESt8functionIFvN4absl12lts_202308028StatusOrISt6vectorI21grpc_resolved_addressSaIS6_EEEEEESt17basic_string_viewIcSt11char_traitsIcEENS_8DurationEP16grpc_pollset_setSF_EN3$_0D2Ev.exit", label %if.then.i.i.i

if.then.i.i.i:                                    ; preds = %delete.notnull
  %call.i.i.i = invoke noundef zeroext i1 %1(ptr noundef nonnull align 8 dereferenceable(16) %0, ptr noundef nonnull align 8 dereferenceable(16) %0, i32 noundef 3)
          to label %"_ZZN9grpc_core17NativeDNSResolver9LookupSRVESt8functionIFvN4absl12lts_202308028StatusOrISt6vectorI21grpc_resolved_addressSaIS6_EEEEEESt17basic_string_viewIcSt11char_traitsIcEENS_8DurationEP16grpc_pollset_setSF_EN3$_0D2Ev.exit" unwind label %terminate.lpad.i.i.i

terminate.lpad.i.i.i:                             ; preds = %if.then.i.i.i
  %2 = landingpad { ptr, i32 }
          catch ptr null
  %3 = extractvalue { ptr, i32 } %2, 0
  tail call void @__clang_call_terminate(ptr %3) #22
  unreachable

"_ZZN9grpc_core17NativeDNSResolver9LookupSRVESt8functionIFvN4absl12lts_202308028StatusOrISt6vectorI21grpc_resolved_addressSaIS6_EEEEEESt17basic_string_viewIcSt11char_traitsIcEENS_8DurationEP16grpc_pollset_setSF_EN3$_0D2Ev.exit": ; preds = %delete.notnull, %if.then.i.i.i
  tail call void @_ZdlPv(ptr noundef nonnull %0) #23
  br label %do.end

do.end:                                           ; preds = %sw.bb2, %"_ZZN9grpc_core17NativeDNSResolver9LookupSRVESt8functionIFvN4absl12lts_202308028StatusOrISt6vectorI21grpc_resolved_addressSaIS6_EEEEEESt17basic_string_viewIcSt11char_traitsIcEENS_8DurationEP16grpc_pollset_setSF_EN3$_0D2Ev.exit", %sw.bb
  ret void
}